Certificate:
    Data:
        Version: 3 (0x2)
        Serial Number: 1 (0x1)
        Signature Algorithm: sha1WithRSAEncryption
        Issuer: C=BA, ST=RS, L=Banja Luka, O=Elektrotehnicki fakultet, OU=ETF, CN=ROOTCA/emailAddress=ROOTCA@mail.com
        Validity
            Not Before: Mar 13 20:20:30 2022 GMT
            Not After : Mar 13 20:20:30 2023 GMT
        Subject: C=BA, ST=RS, O=Elektrotehnicki fakultet, OU=ETF, CN=rootCA1/emailAddress=rootCA1@mail.com
        Subject Public Key Info:
            Public Key Algorithm: rsaEncryption
                RSA Public-Key: (4096 bit)
                Modulus:
                    00:b1:3d:58:89:2d:49:c8:25:a6:cf:2a:28:35:48:
                    af:57:66:6d:a9:46:29:d5:99:c1:24:52:97:12:38:
                    81:2e:00:de:aa:a9:cd:8a:57:bc:96:b9:95:f0:92:
                    c7:21:66:97:77:c4:c8:b9:30:15:9e:e4:dc:ae:e7:
                    84:c5:7f:08:c6:a5:d6:97:5e:36:9f:2c:58:d1:24:
                    75:f3:7d:dd:19:ea:57:90:91:2c:cc:db:cb:43:d7:
                    a8:21:0e:46:0a:4e:9e:aa:65:8c:99:a8:66:3c:e6:
                    ab:4f:35:88:ae:a9:e7:c3:e7:75:63:0d:5a:b5:5f:
                    51:ad:08:13:9b:e5:90:1f:e6:41:41:3a:f8:26:c8:
                    a0:61:44:c1:04:99:42:29:a2:cc:08:38:d7:f4:b8:
                    12:90:11:e0:1f:b8:f5:c1:74:88:2f:d9:02:3d:19:
                    74:2c:9e:30:35:2c:d4:b5:69:f2:36:c7:9c:bb:f3:
                    28:2f:fb:9b:1d:a2:cb:f2:35:1b:79:8e:8e:a9:96:
                    9a:9c:7d:8f:0e:f3:fc:01:e8:e2:39:75:44:08:52:
                    40:e4:86:c1:8b:e1:f6:e5:3d:d5:f1:e5:b8:0e:6b:
                    5a:7a:ec:1e:97:6b:64:92:c3:04:0c:07:6f:e4:b1:
                    35:08:c8:69:ea:27:9f:91:3e:a0:9a:40:3d:d6:3e:
                    f1:dd:ca:5d:53:c8:34:e4:95:be:97:09:fc:1a:b3:
                    79:3c:61:ee:a6:8a:7b:8d:2b:f7:f1:6f:12:b8:b4:
                    66:eb:18:96:ff:22:63:4a:48:99:53:82:04:97:21:
                    f3:40:1f:7c:19:9c:6b:20:a3:87:a6:b9:f3:b9:f2:
                    51:a9:4e:a6:b1:4c:9e:4f:8e:6b:f6:8d:64:e1:45:
                    21:93:3c:e0:65:54:ca:4e:e5:a6:0d:e6:a9:78:98:
                    98:ec:15:ab:82:43:37:80:61:f6:2f:1f:3d:76:97:
                    7a:de:4c:59:ba:cb:2f:ce:91:d1:b3:33:62:a9:32:
                    18:bb:ce:e4:6f:05:94:ef:e4:06:e8:76:1c:f5:3c:
                    0c:23:c0:12:25:f3:0c:2a:30:9b:c2:67:6b:95:70:
                    dd:88:73:53:a5:27:46:29:b9:f1:66:76:91:69:55:
                    8c:7e:f3:08:87:33:57:23:40:5c:29:62:04:8c:a2:
                    be:27:09:d0:27:f0:a5:ba:5b:68:39:9d:36:e6:24:
                    74:7a:68:8e:f8:16:fc:e8:98:58:92:3d:1f:ad:77:
                    7c:e5:1b:e9:e2:da:da:95:cc:a9:c2:ff:0b:13:48:
                    3b:cf:f1:37:21:fd:73:a4:e8:c3:82:0f:9c:c1:fb:
                    98:67:0a:a2:63:24:a8:1d:70:20:04:10:7c:ec:b0:
                    4b:b3:1f
                Exponent: 65537 (0x10001)
        X509v3 extensions:
            X509v3 Basic Constraints: 
                CA:TRUE
            X509v3 Key Usage: 
                Digital Signature, Data Encipherment, Key Agreement, Certificate Sign, CRL Sign
            X509v3 Extended Key Usage: 
                TLS Web Client Authentication, TLS Web Server Authentication
            Netscape Comment: 
                OpenSSL Generated Certificate
            X509v3 Subject Key Identifier: 
                81:0B:F2:CA:44:87:7C:52:A4:DD:EF:A6:A4:7B:BD:4C:7A:B8:9C:45
            X509v3 Authority Key Identifier: 
                keyid:81:0B:F2:CA:44:87:7C:52:A4:DD:EF:A6:A4:7B:BD:4C:7A:B8:9C:45

            X509v3 CRL Distribution Points: 

                Full Name:
                  URI:http://192.168.21.89/rootcrl.pem

    Signature Algorithm: sha1WithRSAEncryption
         5c:e4:fb:a5:ba:f2:c0:4d:23:c9:8d:b6:97:a4:31:be:f7:76:
         ac:eb:2c:9f:2c:09:02:74:de:e7:35:c7:1f:25:ee:e5:6c:d9:
         57:57:00:7e:ad:c3:9b:8c:9b:b7:1c:ff:1a:68:b4:d2:1d:28:
         89:f2:ff:84:05:2b:b3:b5:9f:f5:b3:15:c2:0d:6d:15:de:65:
         e5:d2:f3:3d:55:54:e0:8e:cd:3d:de:4b:cb:01:de:10:9d:de:
         58:1e:32:2f:bb:fa:a8:09:56:a7:27:7e:48:2e:97:77:fd:5c:
         19:3d:3e:8f:89:6c:00:87:21:16:31:a3:ed:bb:9a:c9:ce:11:
         dd:d4:ef:17:85:0f:f7:57:cd:10:a6:88:0a:f3:b1:fa:9a:5a:
         e4:e3:9c:03:90:0b:2f:de:1c:c5:16:48:13:03:35:47:16:1a:
         fd:55:c3:14:2f:36:6e:7f:98:ed:42:cf:d7:35:6b:11:72:9c:
         bc:07:61:89:79:04:21:49:65:75:06:0c:db:d5:fa:2d:dc:b8:
         fa:97:27:56:8e:9c:9b:ad:64:d6:33:2a:41:05:07:10:e4:ac:
         83:fd:d1:3d:e2:be:d3:a9:66:3c:56:a2:ef:0d:bc:7c:d7:5d:
         f6:8c:b7:27:29:1a:8e:9c:84:4e:ff:06:7b:cc:c7:4b:e7:7a:
         c3:57:40:1d:8d:86:28:2d:2e:e5:b1:c6:38:74:8e:7f:8c:36:
         fe:ab:8e:e5:24:76:0b:90:2f:fe:5b:8b:5d:e5:af:a8:82:ac:
         d0:4d:74:13:9c:cb:f6:7c:09:8c:3a:62:41:bd:f5:f6:a7:41:
         61:21:3f:64:a1:96:98:37:0c:fd:5f:05:4c:fa:ea:7f:3b:57:
         69:4b:05:25:4c:38:10:0a:5d:b0:76:f8:a0:5d:79:70:18:ee:
         57:33:e6:5a:8b:c8:35:8a:25:96:d4:ea:49:34:e2:cd:68:da:
         ed:b0:ac:95:0b:f8:c9:bf:44:23:43:b9:b2:54:4e:1c:44:34:
         a1:67:c8:e1:58:e3:42:b2:fe:86:2e:c6:8e:3e:83:a0:30:42:
         25:2a:77:41:b4:f1:bc:e3:32:88:15:35:9c:d9:9f:5d:ad:e1:
         0c:8f:94:e4:91:e1:d3:32:04:de:c1:58:54:24:ef:cd:32:00:
         7e:e1:8a:d3:73:cf:79:01:f6:4e:5c:2a:0b:35:70:af:e9:e6:
         a7:26:73:7b:7e:7f:d9:b4:c4:d7:7c:ca:19:0f:26:39:07:f0:
         3d:14:79:0e:31:32:d6:ab:46:e1:29:bc:fd:1f:34:6e:ab:ad:
         64:a8:c6:1c:19:be:f2:f5:1a:a4:60:c2:24:9d:a9:50:d1:2f:
         7c:4f:72:a3:03:3f:d4:7b
-----BEGIN CERTIFICATE-----
MIIGajCCBFKgAwIBAgIBATANBgkqhkiG9w0BAQUFADCBkTELMAkGA1UEBhMCQkEx
CzAJBgNVBAgTAlJTMRMwEQYDVQQHEwpCYW5qYSBMdWthMSEwHwYDVQQKExhFbGVr
dHJvdGVobmlja2kgZmFrdWx0ZXQxDDAKBgNVBAsTA0VURjEPMA0GA1UEAxMGUk9P
VENBMR4wHAYJKoZIhvcNAQkBFg9ST09UQ0FAbWFpbC5jb20wHhcNMjIwMzEzMjAy
MDMwWhcNMjMwMzEzMjAyMDMwWjB+MQswCQYDVQQGEwJCQTELMAkGA1UECBMCUlMx
ITAfBgNVBAoTGEVsZWt0cm90ZWhuaWNraSBmYWt1bHRldDEMMAoGA1UECxMDRVRG
MRAwDgYDVQQDEwdyb290Q0ExMR8wHQYJKoZIhvcNAQkBFhByb290Q0ExQG1haWwu
Y29tMIICIjANBgkqhkiG9w0BAQEFAAOCAg8AMIICCgKCAgEAsT1YiS1JyCWmzyoo
NUivV2ZtqUYp1ZnBJFKXEjiBLgDeqqnNile8lrmV8JLHIWaXd8TIuTAVnuTcrueE
xX8IxqXWl142nyxY0SR1833dGepXkJEszNvLQ9eoIQ5GCk6eqmWMmahmPOarTzWI
rqnnw+d1Yw1atV9RrQgTm+WQH+ZBQTr4JsigYUTBBJlCKaLMCDjX9LgSkBHgH7j1
wXSIL9kCPRl0LJ4wNSzUtWnyNsecu/MoL/ubHaLL8jUbeY6OqZaanH2PDvP8Aeji
OXVECFJA5IbBi+H25T3V8eW4Dmtaeuwel2tkksMEDAdv5LE1CMhp6iefkT6gmkA9
1j7x3cpdU8g05JW+lwn8GrN5PGHupop7jSv38W8SuLRm6xiW/yJjSkiZU4IElyHz
QB98GZxrIKOHprnzufJRqU6msUyeT45r9o1k4UUhkzzgZVTKTuWmDeapeJiY7BWr
gkM3gGH2Lx89dpd63kxZussvzpHRszNiqTIYu87kbwWU7+QG6HYc9TwMI8ASJfMM
KjCbwmdrlXDdiHNTpSdGKbnxZnaRaVWMfvMIhzNXI0BcKWIEjKK+JwnQJ/Clulto
OZ025iR0emiO+Bb86JhYkj0frXd85Rvp4tralcypwv8LE0g7z/E3If1zpOjDgg+c
wfuYZwqiYySoHXAgBBB87LBLsx8CAwEAAaOB3jCB2zAMBgNVHRMEBTADAQH/MAsG
A1UdDwQEAwIBnjAdBgNVHSUEFjAUBggrBgEFBQcDAgYIKwYBBQUHAwEwLAYJYIZI
AYb4QgENBB8WHU9wZW5TU0wgR2VuZXJhdGVkIENlcnRpZmljYXRlMB0GA1UdDgQW
BBSBC/LKRId8UqTd76ake71MericRTAfBgNVHSMEGDAWgBSBC/LKRId8UqTd76ak
e71MericRTAxBgNVHR8EKjAoMCagJKAihiBodHRwOi8vMTkyLjE2OC4yMS44OS9y
b290Y3JsLnBlbTANBgkqhkiG9w0BAQUFAAOCAgEAXOT7pbrywE0jyY22l6Qxvvd2
rOssnywJAnTe5zXHHyXu5WzZV1cAfq3Dm4ybtxz/Gmi00h0oifL/hAUrs7Wf9bMV
wg1tFd5l5dLzPVVU4I7NPd5LywHeEJ3eWB4yL7v6qAlWpyd+SC6Xd/1cGT0+j4ls
AIchFjGj7buayc4R3dTvF4UP91fNEKaICvOx+ppa5OOcA5ALL94cxRZIEwM1RxYa
/VXDFC82bn+Y7ULP1zVrEXKcvAdhiXkEIUlldQYM29X6Ldy4+pcnVo6cm61k1jMq
QQUHEOSsg/3RPeK+06lmPFai7w28fNdd9oy3JykajpyETv8Ge8zHS+d6w1dAHY2G
KC0u5bHGOHSOf4w2/quO5SR2C5Av/luLXeWvqIKs0E10E5zL9nwJjDpiQb319qdB
YSE/ZKGWmDcM/V8FTPrqfztXaUsFJUw4EApdsHb4oF15cBjuVzPmWovINYolltTq
STTizWja7bCslQv4yb9EI0O5slROHEQ0oWfI4VjjQrL+hi7Gjj6DoDBCJSp3QbTx
vOMyiBU1nNmfXa3hDI+U5JHh0zIE3sFYVCTvzTIAfuGK03PPeQH2TlwqCzVwr+nm
pyZze35/2bTE13zKGQ8mOQfwPRR5DjEy1qtG4Sm8/R80bqutZKjGHBm+8vUapGDC
JJ2pUNEvfE9yowM/1Hs=
-----END CERTIFICATE-----
