Certificate:
    Data:
        Version: 3 (0x2)
        Serial Number: 2 (0x2)
        Signature Algorithm: sha1WithRSAEncryption
        Issuer: C=BA, ST=RS, L=Banja Luka, O=Elektrotehnicki fakultet, OU=ETF, CN=ROOTCA/emailAddress=ROOTCA@mail.com
        Validity
            Not Before: Mar 13 20:24:15 2022 GMT
            Not After : Mar 13 20:24:15 2023 GMT
        Subject: C=BA, ST=RS, O=Elektrotehnicki fakultet, OU=ETF, CN=rootCA2/emailAddress=rootCA2@mail.com
        Subject Public Key Info:
            Public Key Algorithm: rsaEncryption
                RSA Public-Key: (4096 bit)
                Modulus:
                    00:b1:3d:58:89:2d:49:c8:25:a6:cf:2a:28:35:48:
                    af:57:66:6d:a9:46:29:d5:99:c1:24:52:97:12:38:
                    81:2e:00:de:aa:a9:cd:8a:57:bc:96:b9:95:f0:92:
                    c7:21:66:97:77:c4:c8:b9:30:15:9e:e4:dc:ae:e7:
                    84:c5:7f:08:c6:a5:d6:97:5e:36:9f:2c:58:d1:24:
                    75:f3:7d:dd:19:ea:57:90:91:2c:cc:db:cb:43:d7:
                    a8:21:0e:46:0a:4e:9e:aa:65:8c:99:a8:66:3c:e6:
                    ab:4f:35:88:ae:a9:e7:c3:e7:75:63:0d:5a:b5:5f:
                    51:ad:08:13:9b:e5:90:1f:e6:41:41:3a:f8:26:c8:
                    a0:61:44:c1:04:99:42:29:a2:cc:08:38:d7:f4:b8:
                    12:90:11:e0:1f:b8:f5:c1:74:88:2f:d9:02:3d:19:
                    74:2c:9e:30:35:2c:d4:b5:69:f2:36:c7:9c:bb:f3:
                    28:2f:fb:9b:1d:a2:cb:f2:35:1b:79:8e:8e:a9:96:
                    9a:9c:7d:8f:0e:f3:fc:01:e8:e2:39:75:44:08:52:
                    40:e4:86:c1:8b:e1:f6:e5:3d:d5:f1:e5:b8:0e:6b:
                    5a:7a:ec:1e:97:6b:64:92:c3:04:0c:07:6f:e4:b1:
                    35:08:c8:69:ea:27:9f:91:3e:a0:9a:40:3d:d6:3e:
                    f1:dd:ca:5d:53:c8:34:e4:95:be:97:09:fc:1a:b3:
                    79:3c:61:ee:a6:8a:7b:8d:2b:f7:f1:6f:12:b8:b4:
                    66:eb:18:96:ff:22:63:4a:48:99:53:82:04:97:21:
                    f3:40:1f:7c:19:9c:6b:20:a3:87:a6:b9:f3:b9:f2:
                    51:a9:4e:a6:b1:4c:9e:4f:8e:6b:f6:8d:64:e1:45:
                    21:93:3c:e0:65:54:ca:4e:e5:a6:0d:e6:a9:78:98:
                    98:ec:15:ab:82:43:37:80:61:f6:2f:1f:3d:76:97:
                    7a:de:4c:59:ba:cb:2f:ce:91:d1:b3:33:62:a9:32:
                    18:bb:ce:e4:6f:05:94:ef:e4:06:e8:76:1c:f5:3c:
                    0c:23:c0:12:25:f3:0c:2a:30:9b:c2:67:6b:95:70:
                    dd:88:73:53:a5:27:46:29:b9:f1:66:76:91:69:55:
                    8c:7e:f3:08:87:33:57:23:40:5c:29:62:04:8c:a2:
                    be:27:09:d0:27:f0:a5:ba:5b:68:39:9d:36:e6:24:
                    74:7a:68:8e:f8:16:fc:e8:98:58:92:3d:1f:ad:77:
                    7c:e5:1b:e9:e2:da:da:95:cc:a9:c2:ff:0b:13:48:
                    3b:cf:f1:37:21:fd:73:a4:e8:c3:82:0f:9c:c1:fb:
                    98:67:0a:a2:63:24:a8:1d:70:20:04:10:7c:ec:b0:
                    4b:b3:1f
                Exponent: 65537 (0x10001)
        X509v3 extensions:
            X509v3 Basic Constraints: 
                CA:TRUE
            X509v3 Key Usage: 
                Digital Signature, Data Encipherment, Key Agreement, Certificate Sign, CRL Sign
            X509v3 Extended Key Usage: 
                TLS Web Client Authentication, TLS Web Server Authentication
            Netscape Comment: 
                OpenSSL Generated Certificate
            X509v3 Subject Key Identifier: 
                81:0B:F2:CA:44:87:7C:52:A4:DD:EF:A6:A4:7B:BD:4C:7A:B8:9C:45
            X509v3 Authority Key Identifier: 
                keyid:81:0B:F2:CA:44:87:7C:52:A4:DD:EF:A6:A4:7B:BD:4C:7A:B8:9C:45

            X509v3 CRL Distribution Points: 

                Full Name:
                  URI:http://192.168.21.89/rootcrl.pem

    Signature Algorithm: sha1WithRSAEncryption
         8a:0f:23:a0:87:92:0d:9a:8d:be:bd:ce:87:8d:65:fe:01:3f:
         8b:87:be:60:c6:6c:27:55:81:13:95:d3:bf:2e:43:6c:c9:23:
         2f:d3:51:66:ac:11:48:6d:f2:b2:9a:e5:0e:24:5f:c1:72:e8:
         eb:8c:56:3a:fe:a4:ca:85:29:1d:60:17:7a:eb:f7:a1:54:4e:
         ae:f0:fb:a4:c9:8c:e7:5b:54:9e:59:07:31:59:90:79:fa:f0:
         af:f9:65:b0:e4:a1:a6:cf:d7:36:94:c3:dd:7f:aa:08:54:17:
         47:1b:18:24:6b:f6:45:5b:41:7b:25:75:05:89:bb:25:9e:7c:
         0b:c1:24:1f:2f:cb:20:b6:ad:91:26:f2:4e:4a:51:63:99:9a:
         4c:b5:5a:a7:3d:e8:af:08:7a:0e:34:0c:93:64:22:52:81:a2:
         0c:38:e9:9e:49:b9:5b:6c:5d:21:e4:62:81:84:3f:dd:ed:b7:
         f2:64:98:d5:98:28:10:bf:c2:44:86:06:09:2e:12:b5:e1:e8:
         2d:1d:8b:f6:aa:6a:91:99:18:c9:32:c7:78:97:d2:30:3d:b8:
         b8:dd:96:99:38:fb:7b:87:31:98:a4:27:80:aa:18:12:83:33:
         8e:b0:71:e0:22:d6:85:38:96:d3:5b:55:8c:1f:87:95:b8:9a:
         be:1f:d3:65:14:ce:6b:e7:6b:8a:f5:4f:28:ed:d2:48:72:00:
         97:0b:59:48:0e:93:2e:56:7e:0e:c9:04:93:d7:d3:fc:b1:dd:
         a3:7d:09:3f:2c:38:01:9b:13:6a:06:bd:ae:d2:dd:70:4e:15:
         2d:77:06:13:34:92:c5:ce:aa:fc:a0:ff:45:43:14:8b:19:31:
         de:19:a1:8d:40:3e:ca:ef:63:80:ba:92:b4:be:06:eb:93:3a:
         96:38:35:60:4a:09:75:74:bf:61:9f:65:9d:41:33:db:38:6b:
         43:af:e2:0b:19:42:cb:58:86:42:0b:f7:c8:db:40:c6:a4:3d:
         64:92:c0:f1:f2:45:bd:2a:c6:b4:4a:26:aa:07:d7:e1:a3:08:
         b9:09:05:1f:42:34:11:66:70:4b:94:cf:92:bd:fc:b8:b4:18:
         5e:f5:42:45:0c:06:09:ae:9e:2e:42:0c:95:01:4e:13:4e:7d:
         cd:ef:d4:3e:05:27:79:6b:25:7a:4c:4e:f3:1d:17:1f:08:db:
         e7:34:a7:b5:eb:8c:b5:48:25:ba:79:57:54:24:a3:7f:ec:ad:
         b9:fe:3a:c6:83:5a:a3:a0:0b:38:c6:79:b9:1b:2b:51:87:52:
         14:3d:90:57:91:e0:0a:ae:81:73:f6:60:ec:31:6c:8e:d6:f1:
         4f:52:74:39:00:b5:27:02
-----BEGIN CERTIFICATE-----
MIIGajCCBFKgAwIBAgIBAjANBgkqhkiG9w0BAQUFADCBkTELMAkGA1UEBhMCQkEx
CzAJBgNVBAgTAlJTMRMwEQYDVQQHEwpCYW5qYSBMdWthMSEwHwYDVQQKExhFbGVr
dHJvdGVobmlja2kgZmFrdWx0ZXQxDDAKBgNVBAsTA0VURjEPMA0GA1UEAxMGUk9P
VENBMR4wHAYJKoZIhvcNAQkBFg9ST09UQ0FAbWFpbC5jb20wHhcNMjIwMzEzMjAy
NDE1WhcNMjMwMzEzMjAyNDE1WjB+MQswCQYDVQQGEwJCQTELMAkGA1UECBMCUlMx
ITAfBgNVBAoTGEVsZWt0cm90ZWhuaWNraSBmYWt1bHRldDEMMAoGA1UECxMDRVRG
MRAwDgYDVQQDEwdyb290Q0EyMR8wHQYJKoZIhvcNAQkBFhByb290Q0EyQG1haWwu
Y29tMIICIjANBgkqhkiG9w0BAQEFAAOCAg8AMIICCgKCAgEAsT1YiS1JyCWmzyoo
NUivV2ZtqUYp1ZnBJFKXEjiBLgDeqqnNile8lrmV8JLHIWaXd8TIuTAVnuTcrueE
xX8IxqXWl142nyxY0SR1833dGepXkJEszNvLQ9eoIQ5GCk6eqmWMmahmPOarTzWI
rqnnw+d1Yw1atV9RrQgTm+WQH+ZBQTr4JsigYUTBBJlCKaLMCDjX9LgSkBHgH7j1
wXSIL9kCPRl0LJ4wNSzUtWnyNsecu/MoL/ubHaLL8jUbeY6OqZaanH2PDvP8Aeji
OXVECFJA5IbBi+H25T3V8eW4Dmtaeuwel2tkksMEDAdv5LE1CMhp6iefkT6gmkA9
1j7x3cpdU8g05JW+lwn8GrN5PGHupop7jSv38W8SuLRm6xiW/yJjSkiZU4IElyHz
QB98GZxrIKOHprnzufJRqU6msUyeT45r9o1k4UUhkzzgZVTKTuWmDeapeJiY7BWr
gkM3gGH2Lx89dpd63kxZussvzpHRszNiqTIYu87kbwWU7+QG6HYc9TwMI8ASJfMM
KjCbwmdrlXDdiHNTpSdGKbnxZnaRaVWMfvMIhzNXI0BcKWIEjKK+JwnQJ/Clulto
OZ025iR0emiO+Bb86JhYkj0frXd85Rvp4tralcypwv8LE0g7z/E3If1zpOjDgg+c
wfuYZwqiYySoHXAgBBB87LBLsx8CAwEAAaOB3jCB2zAMBgNVHRMEBTADAQH/MAsG
A1UdDwQEAwIBnjAdBgNVHSUEFjAUBggrBgEFBQcDAgYIKwYBBQUHAwEwLAYJYIZI
AYb4QgENBB8WHU9wZW5TU0wgR2VuZXJhdGVkIENlcnRpZmljYXRlMB0GA1UdDgQW
BBSBC/LKRId8UqTd76ake71MericRTAfBgNVHSMEGDAWgBSBC/LKRId8UqTd76ak
e71MericRTAxBgNVHR8EKjAoMCagJKAihiBodHRwOi8vMTkyLjE2OC4yMS44OS9y
b290Y3JsLnBlbTANBgkqhkiG9w0BAQUFAAOCAgEAig8joIeSDZqNvr3Oh41l/gE/
i4e+YMZsJ1WBE5XTvy5DbMkjL9NRZqwRSG3ysprlDiRfwXLo64xWOv6kyoUpHWAX
euv3oVROrvD7pMmM51tUnlkHMVmQefrwr/llsOShps/XNpTD3X+qCFQXRxsYJGv2
RVtBeyV1BYm7JZ58C8EkHy/LILatkSbyTkpRY5maTLVapz3orwh6DjQMk2QiUoGi
DDjpnkm5W2xdIeRigYQ/3e238mSY1ZgoEL/CRIYGCS4SteHoLR2L9qpqkZkYyTLH
eJfSMD24uN2WmTj7e4cxmKQngKoYEoMzjrBx4CLWhTiW01tVjB+Hlbiavh/TZRTO
a+drivVPKO3SSHIAlwtZSA6TLlZ+DskEk9fT/LHdo30JPyw4AZsTaga9rtLdcE4V
LXcGEzSSxc6q/KD/RUMUixkx3hmhjUA+yu9jgLqStL4G65M6ljg1YEoJdXS/YZ9l
nUEz2zhrQ6/iCxlCy1iGQgv3yNtAxqQ9ZJLA8fJFvSrGtEomqgfX4aMIuQkFH0I0
EWZwS5TPkr38uLQYXvVCRQwGCa6eLkIMlQFOE059ze/UPgUneWslekxO8x0XHwjb
5zSnteuMtUglunlXVCSjf+ytuf46xoNao6ALOMZ5uRsrUYdSFD2QV5HgCq6Bc/Zg
7DFsjtbxT1J0OQC1JwI=
-----END CERTIFICATE-----
