Certificate:
    Data:
        Version: 3 (0x2)
        Serial Number: 3 (0x3)
        Signature Algorithm: sha1WithRSAEncryption
        Issuer: C=BA, ST=RS, O=Elektrotehnicki fakultet, OU=ETF, CN=rootCA2/emailAddress=rootca2@gmail.com
        Validity
            Not Before: Apr 19 07:05:55 2022 GMT
            Not After : Apr 19 07:05:55 2023 GMT
        Subject: C=BA, ST=RS, O=Elektrotehnicki fakultet, OU=ETF, CN=test/emailAddress=test@mail.com
        Subject Public Key Info:
            Public Key Algorithm: rsaEncryption
                RSA Public-Key: (4096 bit)
                Modulus:
                    00:f6:2d:80:e0:a0:9d:f9:76:ed:bf:31:35:c0:53:
                    d4:1c:5f:3e:f3:df:2a:e8:aa:68:22:03:84:41:ac:
                    2f:cf:a2:33:ac:c5:46:bf:fc:3e:16:f1:3d:78:21:
                    de:ea:38:09:d9:38:97:00:ab:e2:7b:8f:4b:ee:ad:
                    2e:c8:e6:0c:34:10:f2:8a:f3:78:0f:68:1c:9c:d4:
                    ef:ff:9a:58:bc:99:e4:9b:dc:cf:86:36:02:e7:57:
                    4c:37:69:a9:fd:09:22:f4:a0:7c:06:e6:77:12:8e:
                    c0:aa:87:db:84:c9:fe:c6:a0:a7:2d:01:2b:a8:58:
                    15:a6:ea:d0:02:de:52:5a:9b:da:65:82:2e:2a:86:
                    f4:2c:47:03:da:28:80:5e:51:2c:8f:a8:16:fa:d2:
                    49:e8:20:01:9c:2c:fd:45:26:c3:49:57:6b:88:71:
                    07:a2:d3:a4:17:f4:8a:df:1a:10:0c:d3:b2:ab:22:
                    8b:df:c3:ce:77:61:bd:37:d0:af:44:31:8d:c3:a1:
                    23:02:25:b9:aa:d7:30:3c:e3:6b:80:b7:88:5c:1a:
                    70:9e:d5:19:b0:21:59:02:d2:8f:67:35:40:64:2b:
                    d8:1e:5c:13:74:08:2f:74:86:10:b7:fb:cf:03:36:
                    ba:bc:45:35:b8:04:dc:49:1a:e1:78:41:91:97:91:
                    d7:f3:05:ef:e4:0f:af:93:40:1b:14:27:c1:a5:88:
                    80:99:0d:a6:9d:cd:94:9b:48:8c:a8:6b:a3:de:8d:
                    c2:d8:a2:e8:9c:28:90:f6:0f:1c:b5:b0:14:50:b3:
                    27:e1:e8:26:1c:9e:07:77:41:72:ca:f3:70:94:5b:
                    a1:c4:a7:90:f1:ac:a3:14:e3:95:06:b9:f8:c5:db:
                    d2:50:8e:c1:d4:2f:b1:e3:ba:73:43:52:02:7a:23:
                    23:5a:22:1a:18:7d:81:12:fc:81:a4:4c:f7:2e:28:
                    c8:da:d5:75:ca:76:69:54:d6:f9:6c:ac:ec:c4:76:
                    6b:bb:d8:f5:f1:5f:a1:80:ff:84:1f:28:78:01:58:
                    bd:d0:17:e2:88:11:05:75:40:b8:88:69:84:44:f6:
                    21:c6:0e:fd:07:46:91:5a:13:a9:54:f0:1d:f9:ee:
                    fb:de:5c:02:94:e4:0d:8f:f8:db:33:80:0f:7d:c0:
                    cc:b3:1c:af:6f:c0:3c:c7:ab:ed:ac:55:e5:14:00:
                    ce:1b:3a:a9:83:ce:d8:00:7b:df:a2:2d:7c:cd:f1:
                    08:dc:07:cf:b1:63:30:c4:91:1e:f5:d3:31:27:04:
                    5c:c4:43:65:08:23:eb:3f:a7:ff:98:1a:0d:3c:2f:
                    1e:9c:4e:a0:80:b5:bd:bb:26:3a:f2:bb:9a:09:d1:
                    0b:4c:81
                Exponent: 65537 (0x10001)
        X509v3 extensions:
            X509v3 Basic Constraints: 
                CA:TRUE
            X509v3 Key Usage: 
                Digital Signature, Data Encipherment, Key Agreement, Certificate Sign, CRL Sign
            X509v3 Extended Key Usage: 
                TLS Web Client Authentication, TLS Web Server Authentication
            Netscape Comment: 
                OpenSSL Generated Certificate
            X509v3 Subject Key Identifier: 
                70:1B:EA:EF:F8:A4:AC:59:E5:8D:5D:70:AC:50:A6:4D:EF:D6:C8:22
            X509v3 Authority Key Identifier: 
                keyid:BA:A9:5D:0A:4E:AF:41:0F:0D:F7:CC:E9:DE:6B:83:9E:93:C2:E6:41

            X509v3 CRL Distribution Points: 

                Full Name:
                  URI:http://192.168.21.89/rootcrl.pem

    Signature Algorithm: sha1WithRSAEncryption
         21:8f:f5:1b:6d:8b:29:17:49:e9:8e:04:b6:52:10:c9:b2:5c:
         7e:0d:99:f6:0b:9f:a1:f6:fe:6d:d4:56:73:83:8a:25:b3:75:
         2d:06:30:38:4a:a0:64:23:bd:d7:f8:76:84:42:ff:35:08:ac:
         62:96:a3:b6:23:4a:2b:b2:8d:22:90:df:5e:0c:9a:16:95:a4:
         62:4c:7d:f1:c4:20:29:4a:f5:29:e1:30:ac:1b:5b:e7:ed:56:
         99:3b:0e:7b:42:5b:db:59:c7:46:23:b6:cd:ee:73:31:c2:db:
         af:90:6d:73:96:95:cd:db:a7:3e:5a:6d:12:cb:59:cd:57:e6:
         eb:2d:97:8d:c1:c6:d6:3c:60:69:be:6f:5b:aa:ee:15:ff:19:
         6c:44:8e:6e:92:39:da:41:be:47:29:6e:6f:6f:d1:de:43:be:
         20:20:e7:e6:65:15:27:a5:80:62:fc:cd:7c:57:ac:6e:b7:72:
         96:1a:40:20:da:92:22:f1:c7:50:cd:e5:09:82:22:e1:18:f0:
         15:47:19:f6:0b:2b:56:6a:d3:3c:44:0c:9a:52:6c:73:e0:2d:
         94:16:98:ae:3c:4a:6f:c0:a2:f6:9f:03:ae:02:c9:c2:e4:04:
         3c:8f:e1:4b:22:21:f2:95:5a:06:3f:47:fd:18:0e:bc:a9:97:
         43:c1:04:64:c6:42:69:8a:48:b6:93:cb:ea:14:4f:6e:73:31:
         6d:c7:25:d3:d6:f8:06:b5:f0:cb:bf:72:3e:d2:4a:f2:34:95:
         26:67:7c:aa:1c:fa:92:32:48:ba:43:3e:b1:c2:b5:16:c2:37:
         e2:54:2f:a4:4f:14:b9:a6:16:4e:ac:dd:85:30:3c:98:89:95:
         81:33:ea:43:ec:48:9e:e1:69:74:35:9b:6a:d4:21:be:e0:38:
         8e:1a:31:cf:96:34:9b:2b:b9:6d:83:eb:95:57:ef:f5:58:d8:
         9f:f9:65:7b:9b:9c:db:0a:6d:66:de:a3:b7:01:8d:26:19:d6:
         2e:a0:1c:47:97:9b:af:69:91:16:ef:53:9e:f4:3a:ee:79:7b:
         d4:3a:c1:f9:2e:3e:15:03:b8:29:4b:10:5e:0c:53:40:ca:53:
         89:4f:7c:74:1a:c6:85:bb:37:b7:54:18:56:7a:07:32:c7:6f:
         99:41:66:7d:bc:41:d5:78:df:97:41:d3:11:4a:ab:68:3b:3c:
         ae:57:2a:94:36:95:c1:7a:af:b4:30:f7:7a:ab:3d:0a:98:d3:
         47:75:59:db:d6:99:c1:35:79:1b:4e:6f:fd:bf:ea:69:ef:05:
         83:91:b6:21:7d:7d:da:93:10:30:5d:33:49:d1:0e:39:3d:76:
         dd:ab:ae:14:67:71:2a:7b
-----BEGIN CERTIFICATE-----
MIIGUTCCBDmgAwIBAgIBAzANBgkqhkiG9w0BAQUFADB/MQswCQYDVQQGEwJCQTEL
MAkGA1UECBMCUlMxITAfBgNVBAoTGEVsZWt0cm90ZWhuaWNraSBmYWt1bHRldDEM
MAoGA1UECxMDRVRGMRAwDgYDVQQDEwdyb290Q0EyMSAwHgYJKoZIhvcNAQkBFhFy
b290Y2EyQGdtYWlsLmNvbTAeFw0yMjA0MTkwNzA1NTVaFw0yMzA0MTkwNzA1NTVa
MHgxCzAJBgNVBAYTAkJBMQswCQYDVQQIEwJSUzEhMB8GA1UEChMYRWxla3Ryb3Rl
aG5pY2tpIGZha3VsdGV0MQwwCgYDVQQLEwNFVEYxDTALBgNVBAMTBHRlc3QxHDAa
BgkqhkiG9w0BCQEWDXRlc3RAbWFpbC5jb20wggIiMA0GCSqGSIb3DQEBAQUAA4IC
DwAwggIKAoICAQD2LYDgoJ35du2/MTXAU9QcXz7z3yroqmgiA4RBrC/PojOsxUa/
/D4W8T14Id7qOAnZOJcAq+J7j0vurS7I5gw0EPKK83gPaByc1O//mli8meSb3M+G
NgLnV0w3aan9CSL0oHwG5ncSjsCqh9uEyf7GoKctASuoWBWm6tAC3lJam9plgi4q
hvQsRwPaKIBeUSyPqBb60knoIAGcLP1FJsNJV2uIcQei06QX9IrfGhAM07KrIovf
w853Yb030K9EMY3DoSMCJbmq1zA842uAt4hcGnCe1RmwIVkC0o9nNUBkK9geXBN0
CC90hhC3+88DNrq8RTW4BNxJGuF4QZGXkdfzBe/kD6+TQBsUJ8GliICZDaadzZSb
SIyoa6PejcLYouicKJD2Dxy1sBRQsyfh6CYcngd3QXLK83CUW6HEp5DxrKMU45UG
ufjF29JQjsHUL7HjunNDUgJ6IyNaIhoYfYES/IGkTPcuKMja1XXKdmlU1vlsrOzE
dmu72PXxX6GA/4QfKHgBWL3QF+KIEQV1QLiIaYRE9iHGDv0HRpFaE6lU8B357vve
XAKU5A2P+NszgA99wMyzHK9vwDzHq+2sVeUUAM4bOqmDztgAe9+iLXzN8QjcB8+x
YzDEkR710zEnBFzEQ2UII+s/p/+YGg08Lx6cTqCAtb27Jjryu5oJ0QtMgQIDAQAB
o4HeMIHbMAwGA1UdEwQFMAMBAf8wCwYDVR0PBAQDAgGeMB0GA1UdJQQWMBQGCCsG
AQUFBwMCBggrBgEFBQcDATAsBglghkgBhvhCAQ0EHxYdT3BlblNTTCBHZW5lcmF0
ZWQgQ2VydGlmaWNhdGUwHQYDVR0OBBYEFHAb6u/4pKxZ5Y1dcKxQpk3v1sgiMB8G
A1UdIwQYMBaAFLqpXQpOr0EPDffM6d5rg56TwuZBMDEGA1UdHwQqMCgwJqAkoCKG
IGh0dHA6Ly8xOTIuMTY4LjIxLjg5L3Jvb3RjcmwucGVtMA0GCSqGSIb3DQEBBQUA
A4ICAQAhj/UbbYspF0npjgS2UhDJslx+DZn2C5+h9v5t1FZzg4ols3UtBjA4SqBk
I73X+HaEQv81CKxilqO2I0orso0ikN9eDJoWlaRiTH3xxCApSvUp4TCsG1vn7VaZ
Ow57QlvbWcdGI7bN7nMxwtuvkG1zlpXN26c+Wm0Sy1nNV+brLZeNwcbWPGBpvm9b
qu4V/xlsRI5ukjnaQb5HKW5vb9HeQ74gIOfmZRUnpYBi/M18V6xut3KWGkAg2pIi
8cdQzeUJgiLhGPAVRxn2CytWatM8RAyaUmxz4C2UFpiuPEpvwKL2nwOuAsnC5AQ8
j+FLIiHylVoGP0f9GA68qZdDwQRkxkJpiki2k8vqFE9uczFtxyXT1vgGtfDLv3I+
0kryNJUmZ3yqHPqSMki6Qz6xwrUWwjfiVC+kTxS5phZOrN2FMDyYiZWBM+pD7Eie
4Wl0NZtq1CG+4DiOGjHPljSbK7ltg+uVV+/1WNif+WV7m5zbCm1m3qO3AY0mGdYu
oBxHl5uvaZEW71Oe9DrueXvUOsH5Lj4VA7gpSxBeDFNAylOJT3x0GsaFuze3VBhW
egcyx2+ZQWZ9vEHVeN+XQdMRSqtoOzyuVyqUNpXBeq+0MPd6qz0KmNNHdVnb1pnB
NXkbTm/9v+pp7wWDkbYhfX3akxAwXTNJ0Q45PXbdq64UZ3Eqew==
-----END CERTIFICATE-----
