Certificate:
    Data:
        Version: 3 (0x2)
        Serial Number: 1 (0x1)
        Signature Algorithm: sha1WithRSAEncryption
        Issuer: C=BA, ST=RS, O=Elektrotehnicki fakultet, OU=ETF, CN=rootCA1/emailAddress=rootca1@mail.com
        Validity
            Not Before: Apr 14 11:47:22 2022 GMT
            Not After : Apr 14 11:47:22 2023 GMT
        Subject: C=BA, ST=RS, O=Elektrotehnicki fakultet, OU=ETF, CN=milos/emailAddress=milos@mail.com
        Subject Public Key Info:
            Public Key Algorithm: rsaEncryption
                RSA Public-Key: (4096 bit)
                Modulus:
                    00:b0:3e:55:43:c6:46:96:b2:4f:bd:cb:ac:4f:00:
                    3e:d4:65:0d:33:31:93:57:4d:e4:f5:70:78:01:9e:
                    0a:66:4d:20:12:a5:8b:35:0f:43:83:c6:31:86:cf:
                    2b:90:95:2a:47:d6:7a:ab:c3:6a:99:1f:d6:c4:01:
                    6e:65:74:dc:1f:3f:b4:8e:8f:79:72:67:8f:e1:db:
                    a1:e1:06:a9:34:5d:db:ad:5e:ea:90:9f:7b:f7:80:
                    53:ba:bb:c2:54:af:59:42:1e:5f:59:88:b4:e7:ec:
                    32:77:f6:7c:82:ac:53:2f:6c:e6:4f:a2:5c:5f:5b:
                    a2:fd:bc:73:a0:9e:19:0b:7a:31:03:6d:9d:12:99:
                    71:67:84:7f:a7:ae:aa:bc:c2:7d:e2:a0:ac:82:7a:
                    74:3e:8b:93:e5:31:8c:fa:a7:45:97:f2:f6:36:d3:
                    ee:4a:15:42:2f:81:59:08:b1:83:6d:9a:2e:6c:a8:
                    cc:2b:1d:ba:71:b1:d3:33:1e:4d:71:18:5a:c1:74:
                    f7:13:77:3d:ac:3b:c3:68:e3:21:f6:ea:7e:f3:70:
                    18:87:32:48:81:8b:0a:f9:12:78:4a:21:67:2e:39:
                    71:f4:7d:98:c9:d4:f5:94:1a:10:fd:83:47:af:76:
                    e3:74:d6:8e:e1:09:85:e7:3b:0a:6c:55:3d:ff:d3:
                    f2:ba:42:73:bf:3f:8c:3c:27:cd:c3:36:f7:bd:5c:
                    3b:ba:b8:6b:7f:ca:bb:96:cb:84:52:5b:8b:fd:f1:
                    4b:9e:44:42:86:f2:f3:a4:02:9a:08:8c:40:1f:7e:
                    51:c6:e8:f0:8e:40:f1:dd:87:f7:39:61:4d:de:71:
                    52:d1:c1:fd:e0:2b:e2:c4:92:a3:7b:43:7f:91:92:
                    77:e4:ee:0d:3c:5c:b9:14:d2:ed:6f:aa:01:be:de:
                    00:e2:be:db:69:4e:2e:c0:01:d8:5c:48:e4:66:a1:
                    a2:29:72:6a:a0:c0:49:28:19:56:31:bf:fb:1c:7b:
                    45:46:12:40:e7:c4:80:e8:6a:83:5e:bb:af:02:1f:
                    ce:01:5d:41:3e:ee:d2:c1:c8:12:ff:96:93:6c:a5:
                    34:e1:41:fd:37:da:b7:63:72:49:ac:2c:dd:e0:c6:
                    48:c2:7c:e6:29:4b:7c:06:4f:81:84:ee:89:a7:49:
                    fe:2b:9a:7d:c5:17:59:d7:89:91:08:20:8c:3d:52:
                    ef:9a:fe:ce:86:40:e3:95:e4:4b:7b:c4:98:c9:fe:
                    e0:fd:45:eb:b3:3e:a3:18:f7:a3:62:6d:cb:37:26:
                    a5:3d:5f:0b:ea:56:09:ce:bc:d1:0a:f4:3a:98:b3:
                    df:ef:e3:44:ce:0f:86:a4:3b:bf:ab:62:0f:a9:96:
                    c3:1a:a9
                Exponent: 65537 (0x10001)
        X509v3 extensions:
            X509v3 Basic Constraints: 
                CA:FALSE
            X509v3 Key Usage: 
                Digital Signature, Data Encipherment, Key Agreement, Certificate Sign, CRL Sign
            X509v3 Extended Key Usage: 
                TLS Web Client Authentication, TLS Web Server Authentication
            Netscape Comment: 
                OpenSSL Generated Certificate
            X509v3 Subject Key Identifier: 
                85:6A:4E:C5:23:78:85:74:62:F9:81:99:5B:1C:03:26:88:63:EE:46
            X509v3 Authority Key Identifier: 
                keyid:34:41:B8:89:23:B3:6C:D1:FF:1F:C1:EC:45:9E:8D:C2:8A:42:68:71

            X509v3 CRL Distribution Points: 

                Full Name:
                  URI:http://192.168.21.89/rootcrl.pem

    Signature Algorithm: sha1WithRSAEncryption
         40:16:fa:d6:58:88:c9:de:22:df:92:64:92:95:ba:bc:58:5b:
         04:ce:ed:e8:54:bb:32:16:3b:4e:a3:af:c5:21:dd:ce:1e:d1:
         74:57:91:aa:ee:4e:22:ed:d2:30:15:06:3a:00:aa:d8:d5:fc:
         f3:f5:7d:d4:05:a0:c6:c9:b8:1c:24:ce:d7:8c:2d:d5:89:04:
         14:6e:30:fb:aa:ae:17:26:ba:4b:44:9c:21:00:4f:72:83:1d:
         75:30:5a:68:ec:9e:21:a2:e0:20:4e:8c:ba:ed:a4:1a:41:5f:
         80:9a:58:e8:69:f7:57:b6:4c:14:5c:e3:0a:1b:de:28:6e:b1:
         a3:a3:e0:d8:f2:fe:4f:74:a8:5e:b2:c5:6a:c7:25:31:12:5a:
         e1:fe:dd:7b:da:21:b2:df:ac:76:bd:67:8a:61:b1:a8:a9:2e:
         03:d5:56:04:6e:59:57:ba:4e:08:2b:f6:f1:93:21:bb:4f:09:
         b5:83:8d:62:a1:eb:5d:23:74:4c:14:f4:03:21:83:41:f8:96:
         c7:0e:6e:25:9a:c5:07:5e:62:02:e1:a7:aa:4a:93:a4:ef:ec:
         e2:3a:93:da:58:ef:17:88:43:7b:2f:4c:17:f0:ae:67:94:93:
         e6:b5:71:08:f5:5f:9d:04:25:5e:c2:33:c8:32:40:3c:19:a7:
         0d:10:ea:4a:90:7a:10:2b:73:19:3a:de:bf:90:58:7c:0b:09:
         e8:24:c9:df:f1:aa:42:3d:9a:50:55:58:8e:e6:dc:c0:75:ec:
         47:74:10:bc:43:ff:34:df:ba:28:29:d5:e4:10:ad:e9:43:61:
         b6:61:89:12:61:05:82:76:e1:72:11:17:58:45:2a:f1:f9:74:
         a6:48:bd:b4:58:fd:14:e8:54:94:6a:87:a1:70:e3:46:a6:81:
         6e:58:ce:bb:3c:d2:08:b6:d3:7d:e2:76:88:94:80:81:e0:0c:
         66:b4:62:ba:cd:40:2f:29:bc:bf:6d:cb:7e:91:d3:bf:e1:ca:
         56:6f:4b:4f:3b:05:0a:3e:fa:78:2f:a6:2e:e1:18:e2:41:4f:
         fa:21:a9:01:c1:ed:ad:b7:00:b3:48:51:0e:04:e1:00:41:80:
         43:ca:61:a7:3b:17:56:25:86:70:2a:b2:a1:4c:b3:44:c4:a5:
         e1:52:f9:93:65:8c:85:1d:3e:62:81:19:01:7b:58:09:b0:c0:
         de:7a:8e:68:6e:3c:bc:68:05:58:a1:27:31:53:13:10:0f:ab:
         48:ab:0f:9d:7c:ca:8f:72:17:a3:fd:48:9e:ee:f2:26:4b:91:
         37:a5:df:14:a1:5e:6e:17:8c:e5:58:65:31:8b:f0:8b:5d:cd:
         98:ee:83:b4:d0:da:31:20
-----BEGIN CERTIFICATE-----
MIIGTzCCBDegAwIBAgIBATANBgkqhkiG9w0BAQUFADB+MQswCQYDVQQGEwJCQTEL
MAkGA1UECBMCUlMxITAfBgNVBAoTGEVsZWt0cm90ZWhuaWNraSBmYWt1bHRldDEM
MAoGA1UECxMDRVRGMRAwDgYDVQQDEwdyb290Q0ExMR8wHQYJKoZIhvcNAQkBFhBy
b290Y2ExQG1haWwuY29tMB4XDTIyMDQxNDExNDcyMloXDTIzMDQxNDExNDcyMlow
ejELMAkGA1UEBhMCQkExCzAJBgNVBAgTAlJTMSEwHwYDVQQKExhFbGVrdHJvdGVo
bmlja2kgZmFrdWx0ZXQxDDAKBgNVBAsTA0VURjEOMAwGA1UEAxMFbWlsb3MxHTAb
BgkqhkiG9w0BCQEWDm1pbG9zQG1haWwuY29tMIICIjANBgkqhkiG9w0BAQEFAAOC
Ag8AMIICCgKCAgEAsD5VQ8ZGlrJPvcusTwA+1GUNMzGTV03k9XB4AZ4KZk0gEqWL
NQ9Dg8Yxhs8rkJUqR9Z6q8NqmR/WxAFuZXTcHz+0jo95cmeP4duh4QapNF3brV7q
kJ9794BTurvCVK9ZQh5fWYi05+wyd/Z8gqxTL2zmT6JcX1ui/bxzoJ4ZC3oxA22d
EplxZ4R/p66qvMJ94qCsgnp0PouT5TGM+qdFl/L2NtPuShVCL4FZCLGDbZoubKjM
Kx26cbHTMx5NcRhawXT3E3c9rDvDaOMh9up+83AYhzJIgYsK+RJ4SiFnLjlx9H2Y
ydT1lBoQ/YNHr3bjdNaO4QmF5zsKbFU9/9PyukJzvz+MPCfNwzb3vVw7urhrf8q7
lsuEUluL/fFLnkRChvLzpAKaCIxAH35RxujwjkDx3Yf3OWFN3nFS0cH94CvixJKj
e0N/kZJ35O4NPFy5FNLtb6oBvt4A4r7baU4uwAHYXEjkZqGiKXJqoMBJKBlWMb/7
HHtFRhJA58SA6GqDXruvAh/OAV1BPu7SwcgS/5aTbKU04UH9N9q3Y3JJrCzd4MZI
wnzmKUt8Bk+BhO6Jp0n+K5p9xRdZ14mRCCCMPVLvmv7OhkDjleRLe8SYyf7g/UXr
sz6jGPejYm3LNyalPV8L6lYJzrzRCvQ6mLPf7+NEzg+GpDu/q2IPqZbDGqkCAwEA
AaOB2zCB2DAJBgNVHRMEAjAAMAsGA1UdDwQEAwIBnjAdBgNVHSUEFjAUBggrBgEF
BQcDAgYIKwYBBQUHAwEwLAYJYIZIAYb4QgENBB8WHU9wZW5TU0wgR2VuZXJhdGVk
IENlcnRpZmljYXRlMB0GA1UdDgQWBBSFak7FI3iFdGL5gZlbHAMmiGPuRjAfBgNV
HSMEGDAWgBQ0QbiJI7Ns0f8fwexFno3CikJocTAxBgNVHR8EKjAoMCagJKAihiBo
dHRwOi8vMTkyLjE2OC4yMS44OS9yb290Y3JsLnBlbTANBgkqhkiG9w0BAQUFAAOC
AgEAQBb61liIyd4i35JkkpW6vFhbBM7t6FS7MhY7TqOvxSHdzh7RdFeRqu5OIu3S
MBUGOgCq2NX88/V91AWgxsm4HCTO14wt1YkEFG4w+6quFya6S0ScIQBPcoMddTBa
aOyeIaLgIE6Muu2kGkFfgJpY6Gn3V7ZMFFzjChveKG6xo6Pg2PL+T3SoXrLFascl
MRJa4f7de9ohst+sdr1nimGxqKkuA9VWBG5ZV7pOCCv28ZMhu08JtYONYqHrXSN0
TBT0AyGDQfiWxw5uJZrFB15iAuGnqkqTpO/s4jqT2ljvF4hDey9MF/CuZ5ST5rVx
CPVfnQQlXsIzyDJAPBmnDRDqSpB6ECtzGTrev5BYfAsJ6CTJ3/GqQj2aUFVYjubc
wHXsR3QQvEP/NN+6KCnV5BCt6UNhtmGJEmEFgnbhchEXWEUq8fl0pki9tFj9FOhU
lGqHoXDjRqaBbljOuzzSCLbTfeJ2iJSAgeAMZrRius1ALym8v23LfpHTv+HKVm9L
TzsFCj76eC+mLuEY4kFP+iGpAcHtrbcAs0hRDgThAEGAQ8phpzsXViWGcCqyoUyz
RMSl4VL5k2WMhR0+YoEZAXtYCbDA3nqOaG48vGgFWKEnMVMTEA+rSKsPnXzKj3IX
o/1Inu7yJkuRN6XfFKFebheM5VhlMYvwi13NmO6DtNDaMSA=
-----END CERTIFICATE-----
