Certificate:
    Data:
        Version: 3 (0x2)
        Serial Number: 4 (0x4)
        Signature Algorithm: sha1WithRSAEncryption
        Issuer: C=BA, ST=RS, O=Elektrotehnicki fakultet, OU=ETF, CN=rootCA1/emailAddress=rootca1@mail.com
        Validity
            Not Before: Apr 20 11:09:17 2022 GMT
            Not After : Apr 20 11:09:17 2023 GMT
        Subject: C=BA, ST=RS, O=Elektrotehnicki fakultet, OU=ETF, CN=neco/emailAddress=neco@mail
        Subject Public Key Info:
            Public Key Algorithm: rsaEncryption
                RSA Public-Key: (4096 bit)
                Modulus:
                    00:c3:70:62:85:ca:f9:7b:1e:31:5f:df:e1:5d:9f:
                    45:40:7e:f8:fc:8d:10:4b:db:18:36:53:c5:75:92:
                    c2:0c:9d:d2:82:b9:cb:3e:02:20:96:c1:47:37:ce:
                    df:90:4f:6b:4a:d7:47:c4:4d:1e:07:6a:2c:1a:3f:
                    84:13:15:ba:e5:95:dc:e2:13:4f:db:98:bd:c4:49:
                    10:5f:b8:9e:d8:91:f9:7b:93:ef:10:b2:fb:c5:9d:
                    67:19:01:1b:cd:00:69:3b:6c:34:c6:c5:86:57:56:
                    e2:32:f2:a8:b9:1d:fd:4e:19:ed:33:c3:32:8e:07:
                    33:d0:f5:da:84:a4:15:d3:b1:97:48:b8:17:c7:99:
                    35:bd:db:95:cf:64:4d:b3:09:88:5d:7f:27:dc:29:
                    7e:ee:1e:93:85:77:71:2b:ae:f5:d9:f6:2e:aa:25:
                    15:f8:bc:35:53:65:05:ff:0e:0f:c3:e3:f0:71:1c:
                    59:5e:47:81:8a:5b:02:fe:1e:cf:85:af:55:29:99:
                    31:6a:35:47:56:fe:e4:ea:e3:ec:09:26:d1:30:1a:
                    bf:81:07:53:10:a0:08:31:c0:88:a0:47:54:19:57:
                    76:a2:f8:68:3b:e3:89:a6:58:c9:5b:b9:b5:13:80:
                    8c:2a:27:af:c3:46:2f:c7:98:57:d5:c2:2f:c9:c0:
                    ea:ee:af:bd:c2:d5:50:e1:d5:c1:78:f7:c2:13:28:
                    f9:cf:1f:b0:06:af:8c:3f:ac:a7:90:4d:ec:04:f1:
                    b9:ce:c3:c6:96:70:80:20:52:7d:2d:f6:81:72:43:
                    a2:b8:62:17:20:10:04:6e:b9:1e:ab:79:e8:e7:fe:
                    0b:27:6b:09:84:30:0f:ea:fc:ca:4a:08:08:6a:c9:
                    2b:bb:f3:a3:f7:94:69:4c:75:a2:b7:34:38:4b:dd:
                    93:83:a5:cf:66:61:3f:29:37:c4:73:0d:5d:28:9c:
                    66:66:06:b0:32:f1:c3:cd:9a:c6:9a:e9:90:c6:27:
                    e6:89:eb:f9:18:b0:19:38:cb:64:1c:a6:b6:5e:16:
                    d0:8e:80:45:7d:38:2e:c3:b1:4e:90:72:2b:4f:d1:
                    6a:c1:c7:54:9d:aa:17:ba:aa:a4:6e:44:2a:df:5a:
                    6c:65:e6:29:05:84:bf:54:a6:85:2f:cb:b1:b2:c1:
                    62:8f:35:af:24:cc:7d:c1:89:ca:a8:88:2d:6c:a4:
                    a2:e0:74:eb:b1:87:0c:10:4d:b1:4d:e2:10:93:1c:
                    12:fc:eb:3f:b2:6d:56:dc:07:6f:1f:92:04:05:68:
                    f4:0e:7a:8a:fc:56:7e:77:df:ee:43:b3:77:54:c3:
                    f9:06:51:96:91:d9:ae:6e:a5:e2:7d:10:10:0d:57:
                    d5:57:51
                Exponent: 65537 (0x10001)
        X509v3 extensions:
            X509v3 Basic Constraints: 
                CA:FALSE
            X509v3 Key Usage: 
                Digital Signature, Data Encipherment, Key Agreement, Certificate Sign, CRL Sign
            X509v3 Extended Key Usage: 
                TLS Web Client Authentication, TLS Web Server Authentication
            Netscape Comment: 
                OpenSSL Generated Certificate
            X509v3 Subject Key Identifier: 
                86:CB:F8:66:DA:44:52:BD:51:C9:87:78:D7:B7:15:E8:F9:5C:71:BA
            X509v3 Authority Key Identifier: 
                keyid:34:41:B8:89:23:B3:6C:D1:FF:1F:C1:EC:45:9E:8D:C2:8A:42:68:71

            X509v3 CRL Distribution Points: 

                Full Name:
                  URI:http://192.168.21.89/rootcrl.pem

    Signature Algorithm: sha1WithRSAEncryption
         b3:13:19:93:b5:b1:a4:a1:60:b7:c3:ab:7f:cc:0a:27:45:80:
         14:1c:27:e9:3b:2f:c1:a1:6b:84:72:d8:25:ce:67:73:4c:f3:
         a6:03:94:45:47:bc:85:99:bb:b7:fc:5a:9c:c3:11:81:03:73:
         ce:65:f2:8e:70:e5:c1:14:2a:bd:12:96:23:3d:4e:9e:31:61:
         43:59:62:b4:ec:8d:99:07:08:5e:38:3a:ba:ad:ee:87:84:a3:
         5c:b2:60:bf:ba:59:47:b1:2c:3b:54:a3:f5:3d:51:10:7e:9c:
         23:cc:c9:ab:9c:7f:e1:b0:f0:29:47:71:d7:19:98:a1:29:af:
         d6:64:c3:ab:1e:14:c0:05:f2:13:75:27:05:6c:14:0f:86:0c:
         39:79:c5:b8:a3:f9:b2:04:ea:3c:8c:83:25:3b:2e:a3:41:5c:
         54:df:6b:5c:90:eb:4e:32:8b:c0:58:df:59:d4:02:08:4e:19:
         fd:1f:e3:bd:f8:c9:23:23:d0:ad:99:c6:50:92:d3:74:81:90:
         03:d6:16:c7:57:db:ac:51:9f:05:92:fb:69:a6:26:f8:88:ef:
         7e:80:87:63:79:4d:e0:03:e5:d3:3d:cf:8e:ab:f5:ec:5f:55:
         b6:a2:86:f5:89:1e:90:2f:8d:60:ca:0d:fc:c9:b5:04:ec:88:
         97:f6:32:08:a0:6d:98:18:65:22:6e:a2:3d:d1:af:8b:d7:b8:
         6e:dc:75:90:6d:66:fb:29:bb:e2:37:2a:97:41:ba:59:03:8e:
         11:25:d4:fd:88:48:7d:11:02:a2:c2:af:34:17:7f:0b:40:aa:
         65:49:45:b1:16:9e:80:7e:53:6e:f8:32:60:d0:3e:bf:e1:f2:
         ef:9a:6f:22:6b:ad:82:e7:c4:48:ea:5a:17:95:cf:98:f1:99:
         43:e1:b3:60:29:89:5a:75:16:44:2b:43:1e:fc:2d:69:a3:8d:
         b6:f6:9a:33:d8:a4:20:a2:e2:59:e7:d9:98:c0:ba:85:50:49:
         fe:da:7e:37:e7:86:97:eb:3b:c8:e2:64:08:2b:42:06:24:ba:
         ef:11:57:c6:1e:e8:25:8e:3f:1b:f4:b8:e9:62:41:99:ff:55:
         17:d1:f6:55:7d:7d:79:36:95:5c:e0:4e:98:fa:26:86:b8:54:
         62:10:60:c4:42:f1:87:48:0d:ef:d4:4d:85:b9:8b:52:47:ed:
         ca:de:5e:8e:9d:41:6f:29:9f:a7:34:44:22:fb:c8:ec:fd:2a:
         31:2b:7b:2d:c0:b5:b9:af:03:9a:ce:3e:b4:8b:b5:3f:6d:f0:
         aa:9b:38:47:ae:96:7e:ce:a1:c6:da:4a:93:d8:5c:8d:c0:16:
         b4:76:eb:47:95:9e:43:b7
-----BEGIN CERTIFICATE-----
MIIGSTCCBDGgAwIBAgIBBDANBgkqhkiG9w0BAQUFADB+MQswCQYDVQQGEwJCQTEL
MAkGA1UECBMCUlMxITAfBgNVBAoTGEVsZWt0cm90ZWhuaWNraSBmYWt1bHRldDEM
MAoGA1UECxMDRVRGMRAwDgYDVQQDEwdyb290Q0ExMR8wHQYJKoZIhvcNAQkBFhBy
b290Y2ExQG1haWwuY29tMB4XDTIyMDQyMDExMDkxN1oXDTIzMDQyMDExMDkxN1ow
dDELMAkGA1UEBhMCQkExCzAJBgNVBAgTAlJTMSEwHwYDVQQKExhFbGVrdHJvdGVo
bmlja2kgZmFrdWx0ZXQxDDAKBgNVBAsTA0VURjENMAsGA1UEAxMEbmVjbzEYMBYG
CSqGSIb3DQEJARYJbmVjb0BtYWlsMIICIjANBgkqhkiG9w0BAQEFAAOCAg8AMIIC
CgKCAgEAw3Bihcr5ex4xX9/hXZ9FQH74/I0QS9sYNlPFdZLCDJ3SgrnLPgIglsFH
N87fkE9rStdHxE0eB2osGj+EExW65ZXc4hNP25i9xEkQX7ie2JH5e5PvELL7xZ1n
GQEbzQBpO2w0xsWGV1biMvKouR39ThntM8Myjgcz0PXahKQV07GXSLgXx5k1vduV
z2RNswmIXX8n3Cl+7h6ThXdxK6712fYuqiUV+Lw1U2UF/w4Pw+PwcRxZXkeBilsC
/h7Pha9VKZkxajVHVv7k6uPsCSbRMBq/gQdTEKAIMcCIoEdUGVd2ovhoO+OJpljJ
W7m1E4CMKievw0Yvx5hX1cIvycDq7q+9wtVQ4dXBePfCEyj5zx+wBq+MP6ynkE3s
BPG5zsPGlnCAIFJ9LfaBckOiuGIXIBAEbrkeq3no5/4LJ2sJhDAP6vzKSggIaskr
u/Oj95RpTHWitzQ4S92Tg6XPZmE/KTfEcw1dKJxmZgawMvHDzZrGmumQxifmiev5
GLAZOMtkHKa2XhbQjoBFfTguw7FOkHIrT9FqwcdUnaoXuqqkbkQq31psZeYpBYS/
VKaFL8uxssFijzWvJMx9wYnKqIgtbKSi4HTrsYcMEE2xTeIQkxwS/Os/sm1W3Adv
H5IEBWj0DnqK/FZ+d9/uQ7N3VMP5BlGWkdmubqXifRAQDVfVV1ECAwEAAaOB2zCB
2DAJBgNVHRMEAjAAMAsGA1UdDwQEAwIBnjAdBgNVHSUEFjAUBggrBgEFBQcDAgYI
KwYBBQUHAwEwLAYJYIZIAYb4QgENBB8WHU9wZW5TU0wgR2VuZXJhdGVkIENlcnRp
ZmljYXRlMB0GA1UdDgQWBBSGy/hm2kRSvVHJh3jXtxXo+VxxujAfBgNVHSMEGDAW
gBQ0QbiJI7Ns0f8fwexFno3CikJocTAxBgNVHR8EKjAoMCagJKAihiBodHRwOi8v
MTkyLjE2OC4yMS44OS9yb290Y3JsLnBlbTANBgkqhkiG9w0BAQUFAAOCAgEAsxMZ
k7WxpKFgt8Orf8wKJ0WAFBwn6TsvwaFrhHLYJc5nc0zzpgOURUe8hZm7t/xanMMR
gQNzzmXyjnDlwRQqvRKWIz1OnjFhQ1litOyNmQcIXjg6uq3uh4SjXLJgv7pZR7Es
O1Sj9T1REH6cI8zJq5x/4bDwKUdx1xmYoSmv1mTDqx4UwAXyE3UnBWwUD4YMOXnF
uKP5sgTqPIyDJTsuo0FcVN9rXJDrTjKLwFjfWdQCCE4Z/R/jvfjJIyPQrZnGUJLT
dIGQA9YWx1fbrFGfBZL7aaYm+IjvfoCHY3lN4APl0z3Pjqv17F9VtqKG9YkekC+N
YMoN/Mm1BOyIl/YyCKBtmBhlIm6iPdGvi9e4btx1kG1m+ym74jcql0G6WQOOESXU
/YhIfRECosKvNBd/C0CqZUlFsRaegH5TbvgyYNA+v+Hy75pvImutgufESOpaF5XP
mPGZQ+GzYCmJWnUWRCtDHvwtaaONtvaaM9ikIKLiWefZmMC6hVBJ/tp+N+eGl+s7
yOJkCCtCBiS67xFXxh7oJY4/G/S46WJBmf9VF9H2VX19eTaVXOBOmPomhrhUYhBg
xELxh0gN79RNhbmLUkftyt5ejp1BbymfpzREIvvI7P0qMSt7LcC1ua8Dms4+tIu1
P23wqps4R66Wfs6hxtpKk9hcjcAWtHbrR5WeQ7c=
-----END CERTIFICATE-----
